; Function Attrs: mustprogress uwtable
define void @_ZN10PacketList13goFirstPacketEv(ptr noundef nonnull align 8 dereferenceable(464) %0) local_unnamed_addr #0 align 2 {
  %2 = alloca %class.QModelIndex, align 8
  %3 = alloca %class.QModelIndex, align 8
  %4 = alloca %class.QModelIndex, align 8
  %5 = alloca %class.QModelIndex, align 8
  %6 = getelementptr inbounds i8, ptr %0, i64 40
  %7 = load ptr, ptr %6, align 8
  store i32 -1, ptr %2, align 8
  %8 = getelementptr inbounds i8, ptr %2, i64 4
  store i32 -1, ptr %8, align 4
  %9 = getelementptr inbounds i8, ptr %2, i64 8
  call void @llvm.memset.p0.i64(ptr noundef nonnull align 8 dereferenceable(16) %9, i8 0, i64 16, i1 false)
  %10 = load ptr, ptr %7, align 8
  %11 = getelementptr inbounds i8, ptr %10, i64 120
  %12 = load ptr, ptr %11, align 8
  %13 = call noundef i32 %12(ptr noundef nonnull align 8 dereferenceable(164) %7, ptr noundef nonnull align 8 dereferenceable(24) %2)
  %14 = icmp slt i32 %13, 1
  br i1 %14, label %_ZN10PacketList17scrollViewChangedEb.exit, label %15

15:                                               ; preds = %1
  %16 = call noundef ptr @_ZNK17QAbstractItemView14selectionModelEv(ptr noundef nonnull align 8 dereferenceable(40) %0)
  %17 = load ptr, ptr %6, align 8
  store i32 -1, ptr %4, align 8
  %18 = getelementptr inbounds i8, ptr %4, i64 4
  store i32 -1, ptr %18, align 4
  %19 = getelementptr inbounds i8, ptr %4, i64 8
  call void @llvm.memset.p0.i64(ptr noundef nonnull align 8 dereferenceable(16) %19, i8 0, i64 16, i1 false)
  %20 = load ptr, ptr %17, align 8
  %21 = getelementptr inbounds i8, ptr %20, i64 96
  %22 = load ptr, ptr %21, align 8
  call void %22(ptr dead_on_unwind nonnull writable sret(%class.QModelIndex) align 8 %3, ptr noundef nonnull align 8 dereferenceable(164) %17, i32 noundef 0, i32 noundef 0, ptr noundef nonnull align 8 dereferenceable(24) %4)
  %23 = load ptr, ptr %16, align 8
  %24 = getelementptr inbounds i8, ptr %23, i64 96
  %25 = load ptr, ptr %24, align 8
  call void %25(ptr noundef nonnull align 8 dereferenceable(16) %16, ptr noundef nonnull align 8 dereferenceable(24) %3, i32 35)
  call void @_ZNK17QAbstractItemView12currentIndexEv(ptr dead_on_unwind nonnull writable sret(%class.QModelIndex) align 8 %5, ptr noundef nonnull align 8 dereferenceable(40) %0)
  %26 = load ptr, ptr %0, align 8
  %27 = getelementptr inbounds i8, ptr %26, i64 488
  %28 = load ptr, ptr %27, align 8
  call void %28(ptr noundef nonnull align 8 dereferenceable(464) %0, ptr noundef nonnull align 8 dereferenceable(24) %5, i32 noundef 0)
  %29 = getelementptr inbounds i8, ptr %0, i64 368
  %30 = load i8, ptr %29, align 8
  %31 = and i8 %30, 1
  %.not.i = icmp eq i8 %31, 0
  br i1 %.not.i, label %_ZN10PacketList17scrollViewChangedEb.exit, label %32

32:                                               ; preds = %15
  call void @_ZN10PacketList18packetListScrolledEb(ptr noundef nonnull align 8 dereferenceable(464) %0, i1 noundef zeroext false)
  br label %_ZN10PacketList17scrollViewChangedEb.exit

_ZN10PacketList17scrollViewChangedEb.exit:        ; preds = %32, %15, %1
  ret void
}